   1               		.file	"GPSClock.c"
   2               	__SREG__ = 0x3f
   3               	__SP_H__ = 0x3e
   4               	__SP_L__ = 0x3d
   5               	__CCP__  = 0x34
   6               	__tmp_reg__ = 0
   7               	__zero_reg__ = 1
  15               	.Ltext0:
  16               		.data
  17               	.LC0:
  18 0000 0D0A 4761 		.string	"\r\nGame over man.\r\n\n"
  18      6D65 206F 
  18      7665 7220 
  18      6D61 6E2E 
  18      0D0A 0A00 
  19               	.LC1:
  20 0014 0D00      		.string	"\r"
  21               	.LC2:
  22 0016 3A00      		.string	":"
  23               	.LC3:
  24 0018 2000      		.string	" "
  25               		.text
  26               	.global	main
  28               	main:
  29               	.LFB7:
  30               	.LM1:
  31 0000 CF92      		push r12
  32 0002 DF92      		push r13
  33 0004 EF92      		push r14
  34 0006 FF92      		push r15
  35 0008 1F93      		push r17
  36 000a DF93      		push r29
  37 000c CF93      		push r28
  38 000e CDB7      		in r28,__SP_L__
  39 0010 DEB7      		in r29,__SP_H__
  40 0012 2997      		sbiw r28,9
  41 0014 0FB6      		in __tmp_reg__,__SREG__
  42 0016 F894      		cli
  43 0018 DEBF      		out __SP_H__,r29
  44 001a 0FBE      		out __SREG__,__tmp_reg__
  45 001c CDBF      		out __SP_L__,r28
  46               	/* prologue: function */
  47               	/* frame size = 9 */
  48               	.LM2:
  49 001e 0E94 0000 		call initUSART
  50               	.LM3:
  51 0022 80E0      		ldi r24,lo8(.LC0)
  52 0024 90E0      		ldi r25,hi8(.LC0)
  53 0026 0E94 0000 		call printString
  54               	.LM4:
  55 002a 81E0      		ldi r24,lo8(1)
  56 002c 61E0      		ldi r22,lo8(1)
  57 002e 0E94 0000 		call initSPI
  58               	.LM5:
  59 0032 0E94 0000 		call init_RTC
  60               	.LM6:
  61 0036 80E8      		ldi r24,lo8(-128)
  62 0038 65E5      		ldi r22,lo8(85)
  63 003a 0E94 0000 		call RTC_SPI_writeByte
  64               	.LM7:
  65 003e 81E8      		ldi r24,lo8(-127)
  66 0040 69E5      		ldi r22,lo8(89)
  67 0042 0E94 0000 		call RTC_SPI_writeByte
  68               	.LM8:
  69 0046 82E8      		ldi r24,lo8(-126)
  70 0048 62E1      		ldi r22,lo8(18)
  71 004a 0E94 0000 		call RTC_SPI_writeByte
  72               	.LM9:
  73 004e 0E94 0000 		call init_SEV_SEG
  74               	.LM10:
  75 0052 0E94 0000 		call SEV_SEG_startupAni
  76               	.LM11:
  77 0056 0E94 0000 		call SEV_SEG_allClear
  78               	.LM12:
  79 005a 6E01      		movw r12,r28
  80 005c 0894      		sec
  81 005e C11C      		adc r12,__zero_reg__
  82 0060 D11C      		adc r13,__zero_reg__
  83               	.LM13:
  84 0062 1AE0      		ldi r17,lo8(10)
  85               	.LBB12:
  86               	.LBB13:
  87               	.LBB14:
  88               	.LBB15:
  89               	.LM14:
  90 0064 84ED      		ldi r24,lo8(12500)
  91 0066 E82E      		mov r14,r24
  92 0068 80E3      		ldi r24,hi8(12500)
  93 006a F82E      		mov r15,r24
  94               	.L2:
  95               	.LBE15:
  96               	.LBE14:
  97               	.LBE13:
  98               	.LBE12:
  99               	.LM15:
 100 006c C601      		movw r24,r12
 101 006e 0E94 0000 		call RTC_getTime
 102               	.LM16:
 103 0072 80E0      		ldi r24,lo8(.LC1)
 104 0074 90E0      		ldi r25,hi8(.LC1)
 105 0076 0E94 0000 		call printString
 106               	.LM17:
 107 007a 8B81      		ldd r24,Y+3
 108 007c 282F      		mov r18,r24
 109 007e 2295      		swap r18
 110 0080 2F70      		andi r18,lo8(15)
 111 0082 219F      		mul r18,r17
 112 0084 9001      		movw r18,r0
 113 0086 1124      		clr r1
 114 0088 8F70      		andi r24,lo8(15)
 115 008a 820F      		add r24,r18
 116 008c 0E94 0000 		call printByte
 117               	.LM18:
 118 0090 80E0      		ldi r24,lo8(.LC2)
 119 0092 90E0      		ldi r25,hi8(.LC2)
 120 0094 0E94 0000 		call printString
 121               	.LM19:
 122 0098 8A81      		ldd r24,Y+2
 123 009a 282F      		mov r18,r24
 124 009c 2295      		swap r18
 125 009e 2F70      		andi r18,lo8(15)
 126 00a0 219F      		mul r18,r17
 127 00a2 9001      		movw r18,r0
 128 00a4 1124      		clr r1
 129 00a6 8F70      		andi r24,lo8(15)
 130 00a8 820F      		add r24,r18
 131 00aa 0E94 0000 		call printByte
 132               	.LM20:
 133 00ae 80E0      		ldi r24,lo8(.LC2)
 134 00b0 90E0      		ldi r25,hi8(.LC2)
 135 00b2 0E94 0000 		call printString
 136               	.LM21:
 137 00b6 8981      		ldd r24,Y+1
 138 00b8 282F      		mov r18,r24
 139 00ba 2295      		swap r18
 140 00bc 2F70      		andi r18,lo8(15)
 141 00be 219F      		mul r18,r17
 142 00c0 9001      		movw r18,r0
 143 00c2 1124      		clr r1
 144 00c4 8F70      		andi r24,lo8(15)
 145 00c6 820F      		add r24,r18
 146 00c8 0E94 0000 		call printByte
 147               	.LM22:
 148 00cc 80E0      		ldi r24,lo8(.LC3)
 149 00ce 90E0      		ldi r25,hi8(.LC3)
 150 00d0 0E94 0000 		call printString
 151               	.LM23:
 152 00d4 6D81      		ldd r22,Y+5
 153 00d6 6295      		swap r22
 154 00d8 6F70      		andi r22,lo8(15)
 155 00da 88E0      		ldi r24,lo8(8)
 156 00dc 0E94 0000 		call SEV_SEG_writeByte
 157               	.LM24:
 158 00e0 6D81      		ldd r22,Y+5
 159 00e2 6F70      		andi r22,lo8(15)
 160 00e4 87E0      		ldi r24,lo8(7)
 161 00e6 0E94 0000 		call SEV_SEG_writeByte
 162               	.LM25:
 163 00ea 6B81      		ldd r22,Y+3
 164 00ec 6295      		swap r22
 165 00ee 6F70      		andi r22,lo8(15)
 166 00f0 86E0      		ldi r24,lo8(6)
 167 00f2 0E94 0000 		call SEV_SEG_writeByte
 168               	.LM26:
 169 00f6 6B81      		ldd r22,Y+3
 170 00f8 6F70      		andi r22,lo8(15)
 171 00fa 85E0      		ldi r24,lo8(5)
 172 00fc 0E94 0000 		call SEV_SEG_writeByte
 173               	.LM27:
 174 0100 6A81      		ldd r22,Y+2
 175 0102 6295      		swap r22
 176 0104 6F70      		andi r22,lo8(15)
 177 0106 84E0      		ldi r24,lo8(4)
 178 0108 0E94 0000 		call SEV_SEG_writeByte
 179               	.LM28:
 180 010c 6A81      		ldd r22,Y+2
 181 010e 6F70      		andi r22,lo8(15)
 182 0110 83E0      		ldi r24,lo8(3)
 183 0112 0E94 0000 		call SEV_SEG_writeByte
 184               	.LM29:
 185 0116 6981      		ldd r22,Y+1
 186 0118 6295      		swap r22
 187 011a 6F70      		andi r22,lo8(15)
 188 011c 82E0      		ldi r24,lo8(2)
 189 011e 0E94 0000 		call SEV_SEG_writeByte
 190               	.LM30:
 191 0122 6981      		ldd r22,Y+1
 192 0124 6F70      		andi r22,lo8(15)
 193 0126 81E0      		ldi r24,lo8(1)
 194 0128 0E94 0000 		call SEV_SEG_writeByte
 195               	.LBB19:
 196               	.LBB18:
 197               	.LBB17:
 198               	.LBB16:
 199               	.LM31:
 200 012c C701      		movw r24,r14
 201               	.LVL0:
 202               	/* #APP */
 203               	 ;  105 "g:/projects/winavr-20100110/lib/gcc/../../avr/include/util/delay_basic.h" 1
 204 012e 0197      		1: sbiw r24,1
 205 0130 01F4      		brne 1b
 206               	 ;  0 "" 2
 207               	/* #NOAPP */
 208 0132 00C0      		rjmp .L2
 209               	.LBE16:
 210               	.LBE17:
 211               	.LBE18:
 212               	.LBE19:
 213               	.LFE7:
 215               	.global	__vector_18
 217               	__vector_18:
 218               	.LFB6:
 219               	.LM32:
 220 0134 1F92      		push __zero_reg__
 221 0136 0F92      		push r0
 222 0138 0FB6      		in r0,__SREG__
 223 013a 0F92      		push r0
 224 013c 1124      		clr __zero_reg__
 225 013e 2F93      		push r18
 226 0140 3F93      		push r19
 227 0142 4F93      		push r20
 228 0144 5F93      		push r21
 229 0146 6F93      		push r22
 230 0148 7F93      		push r23
 231 014a 8F93      		push r24
 232 014c 9F93      		push r25
 233 014e AF93      		push r26
 234 0150 BF93      		push r27
 235 0152 EF93      		push r30
 236 0154 FF93      		push r31
 237               	/* prologue: Signal */
 238               	/* frame size = 0 */
 239               	.LM33:
 240 0156 0E94 0000 		call receiveByte
 241 015a 0E94 0000 		call transmitByte
 242               	/* epilogue start */
 243               	.LM34:
 244 015e FF91      		pop r31
 245 0160 EF91      		pop r30
 246 0162 BF91      		pop r27
 247 0164 AF91      		pop r26
 248 0166 9F91      		pop r25
 249 0168 8F91      		pop r24
 250 016a 7F91      		pop r23
 251 016c 6F91      		pop r22
 252 016e 5F91      		pop r21
 253 0170 4F91      		pop r20
 254 0172 3F91      		pop r19
 255 0174 2F91      		pop r18
 256 0176 0F90      		pop r0
 257 0178 0FBE      		out __SREG__,r0
 258 017a 0F90      		pop r0
 259 017c 1F90      		pop __zero_reg__
 260 017e 1895      		reti
 261               	.LFE6:
 295               	.Letext0:
DEFINED SYMBOLS
                            *ABS*:00000000 GPSClock.c
C:\Users\Jadonis\AppData\Local\Temp/ccU2X6nh.s:2      *ABS*:0000003f __SREG__
C:\Users\Jadonis\AppData\Local\Temp/ccU2X6nh.s:3      *ABS*:0000003e __SP_H__
C:\Users\Jadonis\AppData\Local\Temp/ccU2X6nh.s:4      *ABS*:0000003d __SP_L__
C:\Users\Jadonis\AppData\Local\Temp/ccU2X6nh.s:5      *ABS*:00000034 __CCP__
C:\Users\Jadonis\AppData\Local\Temp/ccU2X6nh.s:6      *ABS*:00000000 __tmp_reg__
C:\Users\Jadonis\AppData\Local\Temp/ccU2X6nh.s:7      *ABS*:00000001 __zero_reg__
C:\Users\Jadonis\AppData\Local\Temp/ccU2X6nh.s:28     .text:00000000 main
C:\Users\Jadonis\AppData\Local\Temp/ccU2X6nh.s:217    .text:00000134 __vector_18

UNDEFINED SYMBOLS
initUSART
printString
initSPI
init_RTC
RTC_SPI_writeByte
init_SEV_SEG
SEV_SEG_startupAni
SEV_SEG_allClear
RTC_getTime
printByte
SEV_SEG_writeByte
receiveByte
transmitByte
__do_copy_data
